target datalayout = "e-m:e-p270:32:32-p271:32:32-p272:64:64-i64:64-i128:128-f80:128-n8:16:32:64-S128"
target triple = "x86_64-pc-linux-gnu"

@.str.95 = private unnamed_addr constant [13 x i8] c"kdsp.cpt.dlt\00", align 1
@kdsp_handle = internal global ptr null, align 8
@.str.179 = private unnamed_addr constant [9 x i8] c"radiotap\00", align 1
@.str.180 = private unnamed_addr constant [5 x i8] c"wlan\00", align 1
@.str.181 = private unnamed_addr constant [9 x i8] c"tcp.port\00", align 1

; Function Attrs: null_pointer_is_valid sspstrong uwtable
define hidden void @proto_reg_handoff_kdsp() #0 {
  %1 = alloca ptr, align 8
  call void @llvm.lifetime.start.p0(i64 8, ptr %1) #3
  %2 = call ptr @find_dissector(ptr noundef @.str.179)
  store ptr %2, ptr %1, align 8
  %3 = load ptr, ptr %1, align 8
  %4 = icmp ne ptr %3, null
  br i1 %4, label %5, label %7

5:                                                ; preds = %0
  %6 = load ptr, ptr %1, align 8
  call void @dissector_add_uint(ptr noundef @.str.95, i32 noundef 127, ptr noundef %6)
  br label %7

7:                                                ; preds = %5, %0
  %8 = call ptr @find_dissector(ptr noundef @.str.180)
  store ptr %8, ptr %1, align 8
  %9 = load ptr, ptr %1, align 8
  %10 = icmp ne ptr %9, null
  br i1 %10, label %11, label %13

11:                                               ; preds = %7
  %12 = load ptr, ptr %1, align 8
  call void @dissector_add_uint(ptr noundef @.str.95, i32 noundef 105, ptr noundef %12)
  br label %13

13:                                               ; preds = %11, %7
  %14 = load ptr, ptr @kdsp_handle, align 8
  call void @dissector_add_uint_with_preference(ptr noundef @.str.181, i32 noundef 2502, ptr noundef %14)
  call void @llvm.lifetime.end.p0(i64 8, ptr %1) #3
  ret void
}