; Function Attrs: null_pointer_is_valid sspstrong uwtable
define hidden void @proto_reg_handoff_kdsp() local_unnamed_addr #0 {
  %1 = tail call ptr @find_dissector(ptr noundef nonnull @.str.179)
  %.not = icmp eq ptr %1, null
  br i1 %.not, label %3, label %2

2:                                                ; preds = %0
  tail call void @dissector_add_uint(ptr noundef nonnull @.str.95, i32 noundef 127, ptr noundef nonnull %1)
  br label %3

3:                                                ; preds = %2, %0
  %4 = tail call ptr @find_dissector(ptr noundef nonnull @.str.180)
  %.not5 = icmp eq ptr %4, null
  br i1 %.not5, label %6, label %5

5:                                                ; preds = %3
  tail call void @dissector_add_uint(ptr noundef nonnull @.str.95, i32 noundef 105, ptr noundef nonnull %4)
  br label %6

6:                                                ; preds = %5, %3
  %7 = load ptr, ptr @kdsp_handle, align 8
  tail call void @dissector_add_uint_with_preference(ptr noundef nonnull @.str.181, i32 noundef 2502, ptr noundef %7)
  ret void
}